; Function Attrs: nounwind uwtable
define dso_local noundef i32 @select_p_reconfigure() local_unnamed_addr #0 {
  %1 = tail call i32 @pthread_mutex_lock(ptr noundef nonnull @cr_mutex) #11
  %.not = icmp eq i32 %1, 0
  br i1 %.not, label %4, label %2

2:                                                ; preds = %0
  %3 = tail call ptr @__errno_location() #12
  store i32 %1, ptr %3, align 4
  tail call void (ptr, ...) @slurm_fatal_abort(ptr noundef nonnull @.str.1, ptr noundef nonnull @__func__.select_p_reconfigure) #13
  unreachable

4:                                                ; preds = %0
  %5 = load ptr, ptr @cr_ptr, align 8
  tail call fastcc void @_free_cr(ptr noundef %5)
  store ptr null, ptr @cr_ptr, align 8
  tail call fastcc void @_init_node_cr()
  %6 = tail call i32 @pthread_mutex_unlock(ptr noundef nonnull @cr_mutex) #11
  %.not5 = icmp eq i32 %6, 0
  br i1 %.not5, label %9, label %7

7:                                                ; preds = %4
  %8 = tail call ptr @__errno_location() #12
  store i32 %6, ptr %8, align 4
  tail call void (ptr, ...) @slurm_fatal_abort(ptr noundef nonnull @.str.2, ptr noundef nonnull @__func__.select_p_reconfigure) #13
  unreachable

9:                                                ; preds = %4
  ret i32 0
}